target datalayout = "e-m:e-p270:32:32-p271:32:32-p272:64:64-i64:64-i128:128-f80:128-n8:16:32:64-S128"
target triple = "x86_64-pc-linux-gnu"

%struct.H5O_info2_t = type { i64, %struct.H5O_token_t, i32, i32, i64, i64, i64, i64, i64 }
%struct.H5O_token_t = type { [16 x i8] }

@.str.125 = private unnamed_addr constant [2 x i8] c".\00", align 1

; Function Attrs: nounwind uwtable
define zeroext i1 @h5tools_is_obj_same(i64 noundef %0, ptr noundef %1, i64 noundef %2, ptr noundef %3) #0 {
  %5 = alloca i64, align 8
  %6 = alloca ptr, align 8
  %7 = alloca i64, align 8
  %8 = alloca ptr, align 8
  %9 = alloca %struct.H5O_info2_t, align 8
  %10 = alloca %struct.H5O_info2_t, align 8
  %11 = alloca i8, align 1
  %12 = alloca i32, align 4
  store i64 %0, ptr %5, align 8, !tbaa !7
  store ptr %1, ptr %6, align 8, !tbaa !13
  store i64 %2, ptr %7, align 8, !tbaa !7
  store ptr %3, ptr %8, align 8, !tbaa !13
  call void @llvm.lifetime.start.p0(i64 72, ptr %9) #10
  call void @llvm.lifetime.start.p0(i64 72, ptr %10) #10
  call void @llvm.lifetime.start.p0(i64 1, ptr %11) #10
  store i8 0, ptr %11, align 1, !tbaa !27
  %13 = load ptr, ptr %6, align 8, !tbaa !13
  %14 = icmp ne ptr %13, null
  br i1 %14, label %15, label %23

15:                                               ; preds = %4
  %16 = load ptr, ptr %6, align 8, !tbaa !13
  %17 = call i32 @strcmp(ptr noundef %16, ptr noundef @.str.125) #11
  %18 = icmp ne i32 %17, 0
  br i1 %18, label %19, label %23

19:                                               ; preds = %15
  %20 = load i64, ptr %5, align 8, !tbaa !7
  %21 = load ptr, ptr %6, align 8, !tbaa !13
  %22 = call i32 @H5Oget_info_by_name3(i64 noundef %20, ptr noundef %21, ptr noundef %9, i32 noundef 1, i64 noundef 0)
  br label %26

23:                                               ; preds = %15, %4
  %24 = load i64, ptr %5, align 8, !tbaa !7
  %25 = call i32 @H5Oget_info3(i64 noundef %24, ptr noundef %9, i32 noundef 1)
  br label %26

26:                                               ; preds = %23, %19
  %27 = load ptr, ptr %8, align 8, !tbaa !13
  %28 = icmp ne ptr %27, null
  br i1 %28, label %29, label %37

29:                                               ; preds = %26
  %30 = load ptr, ptr %8, align 8, !tbaa !13
  %31 = call i32 @strcmp(ptr noundef %30, ptr noundef @.str.125) #11
  %32 = icmp ne i32 %31, 0
  br i1 %32, label %33, label %37

33:                                               ; preds = %29
  %34 = load i64, ptr %7, align 8, !tbaa !7
  %35 = load ptr, ptr %8, align 8, !tbaa !13
  %36 = call i32 @H5Oget_info_by_name3(i64 noundef %34, ptr noundef %35, ptr noundef %10, i32 noundef 1, i64 noundef 0)
  br label %40

37:                                               ; preds = %29, %26
  %38 = load i64, ptr %7, align 8, !tbaa !7
  %39 = call i32 @H5Oget_info3(i64 noundef %38, ptr noundef %10, i32 noundef 1)
  br label %40

40:                                               ; preds = %37, %33
  %41 = getelementptr inbounds nuw %struct.H5O_info2_t, ptr %9, i32 0, i32 0
  %42 = load i64, ptr %41, align 8, !tbaa !99
  %43 = getelementptr inbounds nuw %struct.H5O_info2_t, ptr %10, i32 0, i32 0
  %44 = load i64, ptr %43, align 8, !tbaa !99
  %45 = icmp eq i64 %42, %44
  br i1 %45, label %46, label %55

46:                                               ; preds = %40
  call void @llvm.lifetime.start.p0(i64 4, ptr %12) #10
  %47 = load i64, ptr %5, align 8, !tbaa !7
  %48 = getelementptr inbounds nuw %struct.H5O_info2_t, ptr %9, i32 0, i32 1
  %49 = getelementptr inbounds nuw %struct.H5O_info2_t, ptr %10, i32 0, i32 1
  %50 = call i32 @H5Otoken_cmp(i64 noundef %47, ptr noundef %48, ptr noundef %49, ptr noundef %12)
  %51 = load i32, ptr %12, align 4, !tbaa !3
  %52 = icmp ne i32 %51, 0
  br i1 %52, label %54, label %53

53:                                               ; preds = %46
  store i8 1, ptr %11, align 1, !tbaa !27
  br label %54

54:                                               ; preds = %53, %46
  call void @llvm.lifetime.end.p0(i64 4, ptr %12) #10
  br label %55

55:                                               ; preds = %54, %40
  %56 = load i8, ptr %11, align 1, !tbaa !27, !range !29, !noundef !30
  %57 = trunc i8 %56 to i1
  call void @llvm.lifetime.end.p0(i64 1, ptr %11) #10
  call void @llvm.lifetime.end.p0(i64 72, ptr %10) #10
  call void @llvm.lifetime.end.p0(i64 72, ptr %9) #10
  ret i1 %57
}