; Function Attrs: nounwind uwtable
define zeroext i1 @h5tools_is_obj_same(i64 noundef %0, ptr noundef %1, i64 noundef %2, ptr noundef %3) local_unnamed_addr #0 {
  %5 = alloca %struct.H5O_info2_t, align 8
  %6 = alloca %struct.H5O_info2_t, align 8
  %7 = alloca i32, align 4
  call void @llvm.lifetime.start.p0(i64 72, ptr nonnull %5) #16
  call void @llvm.lifetime.start.p0(i64 72, ptr nonnull %6) #16
  %.not = icmp eq ptr %1, null
  br i1 %.not, label %13, label %sub_0

sub_0:                                            ; preds = %4
  %8 = load i8, ptr %1, align 1
  %.not21 = icmp eq i8 %8, 46
  br i1 %.not21, label %.tail, label %.tail.thread

.tail:                                            ; preds = %sub_0
  %9 = getelementptr inbounds nuw i8, ptr %1, i64 1
  %10 = load i8, ptr %9, align 1
  %11 = icmp eq i8 %10, 0
  br i1 %11, label %13, label %.tail.thread

.tail.thread:                                     ; preds = %sub_0, %.tail
  %12 = call i32 @H5Oget_info_by_name3(i64 noundef %0, ptr noundef nonnull %1, ptr noundef nonnull %5, i32 noundef 1, i64 noundef 0) #16
  br label %15

13:                                               ; preds = %.tail, %4
  %14 = call i32 @H5Oget_info3(i64 noundef %0, ptr noundef nonnull %5, i32 noundef 1) #16
  br label %15

15:                                               ; preds = %13, %.tail.thread
  %.not14 = icmp eq ptr %3, null
  br i1 %.not14, label %21, label %sub_018

sub_018:                                          ; preds = %15
  %16 = load i8, ptr %3, align 1
  %.not22 = icmp eq i8 %16, 46
  br i1 %.not22, label %.tail17, label %.tail17.thread

.tail17:                                          ; preds = %sub_018
  %17 = getelementptr inbounds nuw i8, ptr %3, i64 1
  %18 = load i8, ptr %17, align 1
  %19 = icmp eq i8 %18, 0
  br i1 %19, label %21, label %.tail17.thread

.tail17.thread:                                   ; preds = %sub_018, %.tail17
  %20 = call i32 @H5Oget_info_by_name3(i64 noundef %2, ptr noundef nonnull %3, ptr noundef nonnull %6, i32 noundef 1, i64 noundef 0) #16
  br label %23

21:                                               ; preds = %.tail17, %15
  %22 = call i32 @H5Oget_info3(i64 noundef %2, ptr noundef nonnull %6, i32 noundef 1) #16
  br label %23

23:                                               ; preds = %21, %.tail17.thread
  %24 = load i64, ptr %5, align 8, !tbaa !81
  %25 = load i64, ptr %6, align 8, !tbaa !81
  %26 = icmp eq i64 %24, %25
  br i1 %26, label %27, label %32

27:                                               ; preds = %23
  call void @llvm.lifetime.start.p0(i64 4, ptr nonnull %7) #16
  %28 = getelementptr inbounds nuw i8, ptr %5, i64 8
  %29 = getelementptr inbounds nuw i8, ptr %6, i64 8
  %30 = call i32 @H5Otoken_cmp(i64 noundef %0, ptr noundef nonnull %28, ptr noundef nonnull %29, ptr noundef nonnull %7) #16
  %31 = load i32, ptr %7, align 4, !tbaa !3
  %.not16 = icmp eq i32 %31, 0
  call void @llvm.lifetime.end.p0(i64 4, ptr nonnull %7) #16
  br label %32

32:                                               ; preds = %27, %23
  %.0 = phi i1 [ %.not16, %27 ], [ false, %23 ]
  call void @llvm.lifetime.end.p0(i64 72, ptr nonnull %6) #16
  call void @llvm.lifetime.end.p0(i64 72, ptr nonnull %5) #16
  ret i1 %.0
}